; Function Attrs: mustprogress uwtable
define hidden noundef range(i32 0, 7) i32 @_Z11motionModelRKNSt7__cxx1112basic_stringIcSt11char_traitsIcESaIcEEE(ptr noundef nonnull align 8 dereferenceable(32) %0) local_unnamed_addr #4 personality ptr @__gxx_personality_v0 {
  %2 = alloca %"class.std::__cxx11::basic_string", align 8
  %3 = tail call noundef i32 @_ZNKSt7__cxx1112basic_stringIcSt11char_traitsIcESaIcEE7compareEPKc(ptr noundef nonnull align 8 dereferenceable(32) %0, ptr noundef nonnull @.str.60) #28
  %4 = icmp eq i32 %3, 0
  br i1 %4, label %34, label %5

5:                                                ; preds = %1
  %6 = tail call noundef i32 @_ZNKSt7__cxx1112basic_stringIcSt11char_traitsIcESaIcEE7compareEPKc(ptr noundef nonnull align 8 dereferenceable(32) %0, ptr noundef nonnull @.str.61) #28
  %7 = icmp eq i32 %6, 0
  br i1 %7, label %34, label %8

8:                                                ; preds = %5
  %9 = tail call noundef i32 @_ZNKSt7__cxx1112basic_stringIcSt11char_traitsIcESaIcEE7compareEPKc(ptr noundef nonnull align 8 dereferenceable(32) %0, ptr noundef nonnull @.str.62) #28
  %10 = icmp eq i32 %9, 0
  br i1 %10, label %34, label %11

11:                                               ; preds = %8
  %12 = tail call noundef i32 @_ZNKSt7__cxx1112basic_stringIcSt11char_traitsIcESaIcEE7compareEPKc(ptr noundef nonnull align 8 dereferenceable(32) %0, ptr noundef nonnull @.str.63) #28
  %13 = icmp eq i32 %12, 0
  br i1 %13, label %34, label %14

14:                                               ; preds = %11
  %15 = tail call noundef i32 @_ZNKSt7__cxx1112basic_stringIcSt11char_traitsIcESaIcEE7compareEPKc(ptr noundef nonnull align 8 dereferenceable(32) %0, ptr noundef nonnull @.str.64) #28
  %16 = icmp eq i32 %15, 0
  br i1 %16, label %34, label %17

17:                                               ; preds = %14
  %18 = tail call noundef i32 @_ZNKSt7__cxx1112basic_stringIcSt11char_traitsIcESaIcEE7compareEPKc(ptr noundef nonnull align 8 dereferenceable(32) %0, ptr noundef nonnull @.str.65) #28
  %19 = icmp eq i32 %18, 0
  br i1 %19, label %34, label %20

20:                                               ; preds = %17
  %21 = tail call ptr @__cxa_allocate_exception(i64 16) #28
  call void @llvm.lifetime.start.p0(i64 32, ptr nonnull %2) #28
  invoke void @_ZStplIcSt11char_traitsIcESaIcEENSt7__cxx1112basic_stringIT_T0_T1_EEPKS5_RKS8_(ptr dead_on_unwind nonnull writable sret(%"class.std::__cxx11::basic_string") align 8 %2, ptr noundef nonnull @.str.66, ptr noundef nonnull align 8 dereferenceable(32) %0)
          to label %22 unwind label %_ZNSt7__cxx1112basic_stringIcSt11char_traitsIcESaIcEED2Ev.exit.thread

22:                                               ; preds = %20
  invoke void @_ZNSt13runtime_errorC1ERKNSt7__cxx1112basic_stringIcSt11char_traitsIcESaIcEEE(ptr noundef nonnull align 8 dereferenceable(16) %21, ptr noundef nonnull align 8 dereferenceable(32) %2)
          to label %23 unwind label %25

23:                                               ; preds = %22
  invoke void @__cxa_throw(ptr nonnull %21, ptr nonnull @_ZTISt13runtime_error, ptr nonnull @_ZNSt13runtime_errorD1Ev) #30
          to label %36 unwind label %25

_ZNSt7__cxx1112basic_stringIcSt11char_traitsIcESaIcEED2Ev.exit.thread: ; preds = %20
  %24 = landingpad { ptr, i32 }
          cleanup
  call void @llvm.lifetime.end.p0(i64 32, ptr nonnull %2) #28
  br label %33

25:                                               ; preds = %23, %22
  %.0 = phi i1 [ false, %23 ], [ true, %22 ]
  %26 = landingpad { ptr, i32 }
          cleanup
  %27 = load ptr, ptr %2, align 8, !tbaa !38
  %28 = getelementptr inbounds nuw i8, ptr %2, i64 16
  %29 = icmp eq ptr %27, %28
  br i1 %29, label %_ZNKSt7__cxx1112basic_stringIcSt11char_traitsIcESaIcEE11_M_is_localEv.exit.thread.i.i, label %_ZNSt7__cxx1112basic_stringIcSt11char_traitsIcESaIcEED2Ev.exit

_ZNKSt7__cxx1112basic_stringIcSt11char_traitsIcESaIcEE11_M_is_localEv.exit.thread.i.i: ; preds = %25
  %30 = getelementptr inbounds nuw i8, ptr %2, i64 8
  %31 = load i64, ptr %30, align 8, !tbaa !14
  %32 = icmp ult i64 %31, 16
  call void @llvm.assume(i1 %32)
  call void @llvm.lifetime.end.p0(i64 32, ptr nonnull %2) #28
  br i1 %.0, label %33, label %35

_ZNSt7__cxx1112basic_stringIcSt11char_traitsIcESaIcEED2Ev.exit: ; preds = %25
  call void @_ZdlPv(ptr noundef %27) #29
  call void @llvm.lifetime.end.p0(i64 32, ptr nonnull %2) #28
  br i1 %.0, label %33, label %35

33:                                               ; preds = %_ZNKSt7__cxx1112basic_stringIcSt11char_traitsIcESaIcEE11_M_is_localEv.exit.thread.i.i, %_ZNSt7__cxx1112basic_stringIcSt11char_traitsIcESaIcEED2Ev.exit.thread, %_ZNSt7__cxx1112basic_stringIcSt11char_traitsIcESaIcEED2Ev.exit
  %.pn17 = phi { ptr, i32 } [ %24, %_ZNSt7__cxx1112basic_stringIcSt11char_traitsIcESaIcEED2Ev.exit.thread ], [ %26, %_ZNSt7__cxx1112basic_stringIcSt11char_traitsIcESaIcEED2Ev.exit ], [ %26, %_ZNKSt7__cxx1112basic_stringIcSt11char_traitsIcESaIcEE11_M_is_localEv.exit.thread.i.i ]
  call void @__cxa_free_exception(ptr %21) #28
  br label %35

34:                                               ; preds = %17, %14, %11, %8, %5, %1
  %.012 = phi i32 [ 0, %1 ], [ 1, %5 ], [ 3, %8 ], [ 4, %11 ], [ 5, %14 ], [ 6, %17 ]
  ret i32 %.012

35:                                               ; preds = %_ZNKSt7__cxx1112basic_stringIcSt11char_traitsIcESaIcEE11_M_is_localEv.exit.thread.i.i, %_ZNSt7__cxx1112basic_stringIcSt11char_traitsIcESaIcEED2Ev.exit, %33
  %.pn16 = phi { ptr, i32 } [ %26, %_ZNSt7__cxx1112basic_stringIcSt11char_traitsIcESaIcEED2Ev.exit ], [ %.pn17, %33 ], [ %26, %_ZNKSt7__cxx1112basic_stringIcSt11char_traitsIcESaIcEE11_M_is_localEv.exit.thread.i.i ]
  resume { ptr, i32 } %.pn16

36:                                               ; preds = %23
  unreachable
}